target datalayout = "e-m:e-p270:32:32-p271:32:32-p272:64:64-i64:64-i128:128-f80:128-n8:16:32:64-S128"
target triple = "x86_64-pc-linux-gnu"

%struct.jpeg_decompress_struct = type { ptr, ptr, ptr, ptr, i32, i32, ptr, i32, i32, i32, i32, i32, i32, i32, double, i32, i32, i32, i32, i32, i32, i32, i32, i32, i32, i32, i32, i32, i32, i32, i32, i32, i32, ptr, i32, i32, i32, i32, i32, ptr, [4 x ptr], [4 x ptr], [4 x ptr], i32, ptr, i32, i32, [16 x i8], [16 x i8], [16 x i8], i32, i32, i8, i8, i8, i16, i16, i32, i8, i32, ptr, i32, i32, i32, i32, ptr, i32, [4 x ptr], i32, i32, i32, [10 x i32], i32, i32, i32, i32, i32, ptr, ptr, ptr, ptr, ptr, ptr, ptr, ptr, ptr, ptr, ptr }
%struct.jpeg_memory_mgr = type { ptr, ptr, ptr, ptr, ptr, ptr, ptr, ptr, ptr, ptr, ptr, i64, i64 }
%struct.arith_entropy_decoder = type { %struct.jpeg_entropy_decoder, i64, i64, i32, [4 x i32], [4 x i32], i32, [16 x ptr], [16 x ptr], [4 x i8] }
%struct.jpeg_entropy_decoder = type { ptr, ptr, ptr, ptr, i32 }

; Function Attrs: nounwind uwtable
define void @jinit_arith_decoder(ptr noundef %0) #0 {
  %2 = alloca ptr, align 8
  %3 = alloca ptr, align 8
  %4 = alloca i32, align 4
  %5 = alloca ptr, align 8
  %6 = alloca i32, align 4
  store ptr %0, ptr %2, align 8, !tbaa !3
  call void @llvm.lifetime.start.p0(i64 8, ptr %3) #3
  call void @llvm.lifetime.start.p0(i64 4, ptr %4) #3
  %7 = load ptr, ptr %2, align 8, !tbaa !3
  %8 = getelementptr inbounds nuw %struct.jpeg_decompress_struct, ptr %7, i32 0, i32 1
  %9 = load ptr, ptr %8, align 8, !tbaa !8
  %10 = getelementptr inbounds nuw %struct.jpeg_memory_mgr, ptr %9, i32 0, i32 0
  %11 = load ptr, ptr %10, align 8, !tbaa !32
  %12 = load ptr, ptr %2, align 8, !tbaa !3
  %13 = call ptr %11(ptr noundef %12, i32 noundef 1, i64 noundef 360)
  store ptr %13, ptr %3, align 8, !tbaa !35
  %14 = load ptr, ptr %3, align 8, !tbaa !35
  %15 = load ptr, ptr %2, align 8, !tbaa !3
  %16 = getelementptr inbounds nuw %struct.jpeg_decompress_struct, ptr %15, i32 0, i32 83
  store ptr %14, ptr %16, align 8, !tbaa !36
  %17 = load ptr, ptr %3, align 8, !tbaa !35
  %18 = getelementptr inbounds nuw %struct.arith_entropy_decoder, ptr %17, i32 0, i32 0
  %19 = getelementptr inbounds nuw %struct.jpeg_entropy_decoder, ptr %18, i32 0, i32 0
  store ptr @start_pass, ptr %19, align 8, !tbaa !37
  store i32 0, ptr %4, align 4, !tbaa !40
  br label %20

20:                                               ; preds = %34, %1
  %21 = load i32, ptr %4, align 4, !tbaa !40
  %22 = icmp slt i32 %21, 16
  br i1 %22, label %23, label %37

23:                                               ; preds = %20
  %24 = load ptr, ptr %3, align 8, !tbaa !35
  %25 = getelementptr inbounds nuw %struct.arith_entropy_decoder, ptr %24, i32 0, i32 7
  %26 = load i32, ptr %4, align 4, !tbaa !40
  %27 = sext i32 %26 to i64
  %28 = getelementptr inbounds [16 x ptr], ptr %25, i64 0, i64 %27
  store ptr null, ptr %28, align 8, !tbaa !41
  %29 = load ptr, ptr %3, align 8, !tbaa !35
  %30 = getelementptr inbounds nuw %struct.arith_entropy_decoder, ptr %29, i32 0, i32 8
  %31 = load i32, ptr %4, align 4, !tbaa !40
  %32 = sext i32 %31 to i64
  %33 = getelementptr inbounds [16 x ptr], ptr %30, i64 0, i64 %32
  store ptr null, ptr %33, align 8, !tbaa !41
  br label %34

34:                                               ; preds = %23
  %35 = load i32, ptr %4, align 4, !tbaa !40
  %36 = add nsw i32 %35, 1
  store i32 %36, ptr %4, align 4, !tbaa !40
  br label %20, !llvm.loop !42

37:                                               ; preds = %20
  %38 = load ptr, ptr %3, align 8, !tbaa !35
  %39 = getelementptr inbounds nuw %struct.arith_entropy_decoder, ptr %38, i32 0, i32 9
  %40 = getelementptr inbounds [4 x i8], ptr %39, i64 0, i64 0
  store i8 113, ptr %40, align 8, !tbaa !44
  %41 = load ptr, ptr %2, align 8, !tbaa !3
  %42 = getelementptr inbounds nuw %struct.jpeg_decompress_struct, ptr %41, i32 0, i32 45
  %43 = load i32, ptr %42, align 8, !tbaa !45
  %44 = icmp ne i32 %43, 0
  br i1 %44, label %45, label %88

45:                                               ; preds = %37
  call void @llvm.lifetime.start.p0(i64 8, ptr %5) #3
  call void @llvm.lifetime.start.p0(i64 4, ptr %6) #3
  %46 = load ptr, ptr %2, align 8, !tbaa !3
  %47 = getelementptr inbounds nuw %struct.jpeg_decompress_struct, ptr %46, i32 0, i32 1
  %48 = load ptr, ptr %47, align 8, !tbaa !8
  %49 = getelementptr inbounds nuw %struct.jpeg_memory_mgr, ptr %48, i32 0, i32 0
  %50 = load ptr, ptr %49, align 8, !tbaa !32
  %51 = load ptr, ptr %2, align 8, !tbaa !3
  %52 = load ptr, ptr %2, align 8, !tbaa !3
  %53 = getelementptr inbounds nuw %struct.jpeg_decompress_struct, ptr %52, i32 0, i32 9
  %54 = load i32, ptr %53, align 8, !tbaa !46
  %55 = mul nsw i32 %54, 2
  %56 = mul nsw i32 %55, 64
  %57 = sext i32 %56 to i64
  %58 = mul i64 %57, 4
  %59 = call ptr %50(ptr noundef %51, i32 noundef 1, i64 noundef %58)
  %60 = load ptr, ptr %2, align 8, !tbaa !3
  %61 = getelementptr inbounds nuw %struct.jpeg_decompress_struct, ptr %60, i32 0, i32 39
  store ptr %59, ptr %61, align 8, !tbaa !47
  %62 = load ptr, ptr %2, align 8, !tbaa !3
  %63 = getelementptr inbounds nuw %struct.jpeg_decompress_struct, ptr %62, i32 0, i32 39
  %64 = load ptr, ptr %63, align 8, !tbaa !47
  %65 = getelementptr inbounds [64 x i32], ptr %64, i64 0
  %66 = getelementptr inbounds [64 x i32], ptr %65, i64 0, i64 0
  store ptr %66, ptr %5, align 8, !tbaa !48
  store i32 0, ptr %6, align 4, !tbaa !40
  br label %67

67:                                               ; preds = %84, %45
  %68 = load i32, ptr %6, align 4, !tbaa !40
  %69 = load ptr, ptr %2, align 8, !tbaa !3
  %70 = getelementptr inbounds nuw %struct.jpeg_decompress_struct, ptr %69, i32 0, i32 9
  %71 = load i32, ptr %70, align 8, !tbaa !46
  %72 = icmp slt i32 %68, %71
  br i1 %72, label %73, label %87

73:                                               ; preds = %67
  store i32 0, ptr %4, align 4, !tbaa !40
  br label %74

74:                                               ; preds = %80, %73
  %75 = load i32, ptr %4, align 4, !tbaa !40
  %76 = icmp slt i32 %75, 64
  br i1 %76, label %77, label %83

77:                                               ; preds = %74
  %78 = load ptr, ptr %5, align 8, !tbaa !48
  %79 = getelementptr inbounds nuw i32, ptr %78, i32 1
  store ptr %79, ptr %5, align 8, !tbaa !48
  store i32 -1, ptr %78, align 4, !tbaa !40
  br label %80

80:                                               ; preds = %77
  %81 = load i32, ptr %4, align 4, !tbaa !40
  %82 = add nsw i32 %81, 1
  store i32 %82, ptr %4, align 4, !tbaa !40
  br label %74, !llvm.loop !49

83:                                               ; preds = %74
  br label %84

84:                                               ; preds = %83
  %85 = load i32, ptr %6, align 4, !tbaa !40
  %86 = add nsw i32 %85, 1
  store i32 %86, ptr %6, align 4, !tbaa !40
  br label %67, !llvm.loop !50

87:                                               ; preds = %67
  call void @llvm.lifetime.end.p0(i64 4, ptr %6) #3
  call void @llvm.lifetime.end.p0(i64 8, ptr %5) #3
  br label %88

88:                                               ; preds = %87, %37
  call void @llvm.lifetime.end.p0(i64 4, ptr %4) #3
  call void @llvm.lifetime.end.p0(i64 8, ptr %3) #3
  ret void
}