; Function Attrs: nounwind uwtable
define void @jinit_arith_decoder(ptr noundef %0) local_unnamed_addr #0 {
  %2 = getelementptr inbounds nuw i8, ptr %0, i64 8
  %3 = load ptr, ptr %2, align 8, !tbaa !3
  %4 = load ptr, ptr %3, align 8, !tbaa !30
  %5 = tail call ptr %4(ptr noundef %0, i32 noundef 1, i64 noundef 360) #3
  %6 = getelementptr inbounds nuw i8, ptr %0, i64 592
  store ptr %5, ptr %6, align 8, !tbaa !33
  store ptr @start_pass, ptr %5, align 8, !tbaa !34
  %7 = getelementptr inbounds nuw i8, ptr %5, i64 96
  %8 = getelementptr inbounds nuw i8, ptr %5, i64 352
  tail call void @llvm.memset.p0.i64(ptr noundef nonnull align 8 dereferenceable(256) %7, i8 0, i64 256, i1 false)
  store i8 113, ptr %8, align 8, !tbaa !37
  %9 = getelementptr inbounds nuw i8, ptr %0, i64 312
  %10 = load i32, ptr %9, align 8, !tbaa !38
  %.not = icmp eq i32 %10, 0
  br i1 %.not, label %.loopexit, label %11

11:                                               ; preds = %1
  %12 = load ptr, ptr %2, align 8, !tbaa !3
  %13 = load ptr, ptr %12, align 8, !tbaa !30
  %14 = getelementptr inbounds nuw i8, ptr %0, i64 56
  %15 = load i32, ptr %14, align 8, !tbaa !39
  %16 = shl nsw i32 %15, 7
  %17 = sext i32 %16 to i64
  %18 = shl nsw i64 %17, 2
  %19 = tail call ptr %13(ptr noundef nonnull %0, i32 noundef 1, i64 noundef %18) #3
  %20 = getelementptr inbounds nuw i8, ptr %0, i64 192
  store ptr %19, ptr %20, align 8, !tbaa !40
  %21 = load i32, ptr %14, align 8, !tbaa !39
  %22 = icmp sgt i32 %21, 0
  br i1 %22, label %.preheader, label %.loopexit

.preheader:                                       ; preds = %11, %.preheader
  %.030 = phi i32 [ %23, %.preheader ], [ 0, %11 ]
  %.02329 = phi ptr [ %scevgep, %.preheader ], [ %19, %11 ]
  tail call void @llvm.memset.p0.i64(ptr noundef nonnull align 4 dereferenceable(256) %.02329, i8 -1, i64 256, i1 false), !tbaa !41
  %scevgep = getelementptr i8, ptr %.02329, i64 256
  %23 = add nuw nsw i32 %.030, 1
  %24 = load i32, ptr %14, align 8, !tbaa !39
  %25 = icmp slt i32 %23, %24
  br i1 %25, label %.preheader, label %.loopexit, !llvm.loop !42

.loopexit:                                        ; preds = %.preheader, %11, %1
  ret void
}